target datalayout = "e-m:e-p270:32:32-p271:32:32-p272:64:64-i64:64-i128:128-f80:128-n8:16:32:64-S128"
target triple = "x86_64-pc-linux-gnu"

%"class.logging::CheckOpResult" = type { ptr }
%"class.logging::LogMessage" = type <{ i32, [4 x i8], %"class.std::__cxx11::basic_ostringstream", i64, ptr, i32, [4 x i8] }>
%"class.std::__cxx11::basic_ostringstream" = type { %"class.std::basic_ostream.base", %"class.std::__cxx11::basic_stringbuf", %"class.std::basic_ios" }
%"class.std::basic_ostream.base" = type { ptr }
%"class.std::__cxx11::basic_stringbuf" = type { %"class.std::basic_streambuf", i32, %"class.std::__cxx11::basic_string" }
%"class.std::basic_streambuf" = type { ptr, ptr, ptr, ptr, ptr, ptr, ptr, %"class.std::locale" }
%"class.std::locale" = type { ptr }
%"class.std::__cxx11::basic_string" = type { %"struct.std::__cxx11::basic_string<char>::_Alloc_hider", i64, %union.anon }
%"struct.std::__cxx11::basic_string<char>::_Alloc_hider" = type { ptr }
%union.anon = type { i64, [8 x i8] }
%"class.std::basic_ios" = type { %"class.std::ios_base", ptr, i8, i8, ptr, ptr, ptr, ptr }
%"class.std::ios_base" = type { ptr, i64, i64, i32, i32, i32, ptr, %"struct.std::ios_base::_Words", [8 x %"struct.std::ios_base::_Words"], i32, ptr, %"class.std::locale" }
%"struct.std::ios_base::_Words" = type { ptr, i64 }
%"class.base::PickleIterator" = type { ptr, i64, i64 }
%"class.base::BasicStringPiece.5" = type { ptr, i64 }

@.str.4 = private unnamed_addr constant [109 x i8] c"generated/home/dtcxzyw/WorkSpace/Projects/compilers/llvm-opt-benchmark/bench/libquic/libquic/src/base/bits.h\00", align 1

; Function Attrs: mustprogress nounwind uwtable
define linkonce_odr noundef nonnull align 8 dereferenceable(8) ptr @_ZN7logging10LogMessage6streamEv(ptr noundef nonnull align 8 dereferenceable(404) %0) #2 comdat align 2 {
  %2 = alloca ptr, align 8
  store ptr %0, ptr %2, align 8, !tbaa !14
  %3 = load ptr, ptr %2, align 8
  %4 = getelementptr inbounds nuw %"class.logging::LogMessage", ptr %3, i32 0, i32 2
  ret ptr %4
}

; Function Attrs: mustprogress nounwind uwtable
define linkonce_odr noundef ptr @_ZN7logging13CheckOpResult7messageB5cxx11Ev(ptr noundef nonnull align 8 dereferenceable(8) %0) #2 comdat align 2 {
  %2 = alloca ptr, align 8
  store ptr %0, ptr %2, align 8, !tbaa !8
  %3 = load ptr, ptr %2, align 8
  %4 = getelementptr inbounds nuw %"class.logging::CheckOpResult", ptr %3, i32 0, i32 0
  %5 = load ptr, ptr %4, align 8, !tbaa !12
  ret ptr %5
}

; Function Attrs: mustprogress nounwind uwtable
define linkonce_odr noundef zeroext i1 @_ZNK7logging13CheckOpResultcvbEv(ptr noundef nonnull align 8 dereferenceable(8) %0) #2 comdat align 2 {
  %2 = alloca ptr, align 8
  store ptr %0, ptr %2, align 8, !tbaa !8
  %3 = load ptr, ptr %2, align 8
  %4 = getelementptr inbounds nuw %"class.logging::CheckOpResult", ptr %3, i32 0, i32 0
  %5 = load ptr, ptr %4, align 8, !tbaa !12
  %6 = icmp ne ptr %5, null
  %7 = xor i1 %6, true
  ret i1 %7
}

; Function Attrs: mustprogress nounwind uwtable
define linkonce_odr void @_ZN7logging13CheckOpResultC2EPNSt7__cxx1112basic_stringIcSt11char_traitsIcESaIcEEE(ptr noundef nonnull align 8 dereferenceable(8) %0, ptr noundef %1) unnamed_addr #2 comdat align 2 {
  %3 = alloca ptr, align 8
  %4 = alloca ptr, align 8
  store ptr %0, ptr %3, align 8, !tbaa !8
  store ptr %1, ptr %4, align 8, !tbaa !10
  %5 = load ptr, ptr %3, align 8
  %6 = getelementptr inbounds nuw %"class.logging::CheckOpResult", ptr %5, i32 0, i32 0
  %7 = load ptr, ptr %4, align 8, !tbaa !10
  store ptr %7, ptr %6, align 8, !tbaa !12
  ret void
}

; Function Attrs: inlinehint mustprogress uwtable
define linkonce_odr noundef i64 @_ZN4base4bits5AlignEmm(i64 noundef %0, i64 noundef %1) #5 comdat {
  %3 = alloca i64, align 8
  %4 = alloca i64, align 8
  %5 = alloca %"class.logging::CheckOpResult", align 8
  %6 = alloca %"class.logging::LogMessage", align 8
  store i64 %0, ptr %3, align 8, !tbaa !24
  store i64 %1, ptr %4, align 8, !tbaa !24
  call void @llvm.lifetime.start.p0(i64 8, ptr %5) #11
  call void @_ZN7logging13CheckOpResultC2EPNSt7__cxx1112basic_stringIcSt11char_traitsIcESaIcEEE(ptr noundef nonnull align 8 dereferenceable(8) %5, ptr noundef null)
  %7 = call noundef zeroext i1 @_ZNK7logging13CheckOpResultcvbEv(ptr noundef nonnull align 8 dereferenceable(8) %5)
  br i1 %7, label %8, label %9

8:                                                ; preds = %2
  br label %12

9:                                                ; preds = %2
  call void @llvm.lifetime.start.p0(i64 408, ptr %6) #11
  %10 = call noundef ptr @_ZN7logging13CheckOpResult7messageB5cxx11Ev(ptr noundef nonnull align 8 dereferenceable(8) %5)
  call void @_ZN7logging10LogMessageC1EPKciiPNSt7__cxx1112basic_stringIcSt11char_traitsIcESaIcEEE(ptr noundef nonnull align 8 dereferenceable(404) %6, ptr noundef @.str.4, i32 noundef 48, i32 noundef 0, ptr noundef %10)
  %11 = call noundef nonnull align 8 dereferenceable(8) ptr @_ZN7logging10LogMessage6streamEv(ptr noundef nonnull align 8 dereferenceable(404) %6)
  call void @_ZN7logging10LogMessageD1Ev(ptr noundef nonnull align 8 dereferenceable(404) %6) #11
  call void @llvm.lifetime.end.p0(i64 408, ptr %6) #11
  br label %12

12:                                               ; preds = %9, %8
  call void @llvm.lifetime.end.p0(i64 8, ptr %5) #11
  %13 = load i64, ptr %3, align 8, !tbaa !24
  %14 = load i64, ptr %4, align 8, !tbaa !24
  %15 = add i64 %13, %14
  %16 = sub i64 %15, 1
  %17 = load i64, ptr %4, align 8, !tbaa !24
  %18 = sub i64 %17, 1
  %19 = xor i64 %18, -1
  %20 = and i64 %16, %19
  ret i64 %20
}

; Function Attrs: inlinehint mustprogress uwtable
define linkonce_odr void @_ZN4base14PickleIterator7AdvanceEm(ptr noundef nonnull align 8 dereferenceable(24) %0, i64 noundef %1) #5 comdat align 2 {
  %3 = alloca ptr, align 8
  %4 = alloca i64, align 8
  %5 = alloca i64, align 8
  store ptr %0, ptr %3, align 8, !tbaa !25
  store i64 %1, ptr %4, align 8, !tbaa !24
  %6 = load ptr, ptr %3, align 8
  call void @llvm.lifetime.start.p0(i64 8, ptr %5) #11
  %7 = load i64, ptr %4, align 8, !tbaa !24
  %8 = call noundef i64 @_ZN4base4bits5AlignEmm(i64 noundef %7, i64 noundef 4)
  store i64 %8, ptr %5, align 8, !tbaa !24
  %9 = getelementptr inbounds nuw %"class.base::PickleIterator", ptr %6, i32 0, i32 2
  %10 = load i64, ptr %9, align 8, !tbaa !31
  %11 = getelementptr inbounds nuw %"class.base::PickleIterator", ptr %6, i32 0, i32 1
  %12 = load i64, ptr %11, align 8, !tbaa !30
  %13 = sub i64 %10, %12
  %14 = load i64, ptr %5, align 8, !tbaa !24
  %15 = icmp ult i64 %13, %14
  br i1 %15, label %16, label %20

16:                                               ; preds = %2
  %17 = getelementptr inbounds nuw %"class.base::PickleIterator", ptr %6, i32 0, i32 2
  %18 = load i64, ptr %17, align 8, !tbaa !31
  %19 = getelementptr inbounds nuw %"class.base::PickleIterator", ptr %6, i32 0, i32 1
  store i64 %18, ptr %19, align 8, !tbaa !30
  br label %25

20:                                               ; preds = %2
  %21 = load i64, ptr %5, align 8, !tbaa !24
  %22 = getelementptr inbounds nuw %"class.base::PickleIterator", ptr %6, i32 0, i32 1
  %23 = load i64, ptr %22, align 8, !tbaa !30
  %24 = add i64 %23, %21
  store i64 %24, ptr %22, align 8, !tbaa !30
  br label %25

25:                                               ; preds = %20, %16
  call void @llvm.lifetime.end.p0(i64 8, ptr %5) #11
  ret void
}

; Function Attrs: inlinehint mustprogress uwtable
define linkonce_odr noundef ptr @_ZN4base14PickleIterator24GetReadPointerAndAdvanceIiEEPKcv(ptr noundef nonnull align 8 dereferenceable(24) %0) #5 comdat align 2 {
  %2 = alloca ptr, align 8
  %3 = alloca ptr, align 8
  %4 = alloca ptr, align 8
  store ptr %0, ptr %3, align 8, !tbaa !25
  %5 = load ptr, ptr %3, align 8
  %6 = getelementptr inbounds nuw %"class.base::PickleIterator", ptr %5, i32 0, i32 2
  %7 = load i64, ptr %6, align 8, !tbaa !31
  %8 = getelementptr inbounds nuw %"class.base::PickleIterator", ptr %5, i32 0, i32 1
  %9 = load i64, ptr %8, align 8, !tbaa !30
  %10 = sub i64 %7, %9
  %11 = icmp ugt i64 4, %10
  br i1 %11, label %12, label %16

12:                                               ; preds = %1
  %13 = getelementptr inbounds nuw %"class.base::PickleIterator", ptr %5, i32 0, i32 2
  %14 = load i64, ptr %13, align 8, !tbaa !31
  %15 = getelementptr inbounds nuw %"class.base::PickleIterator", ptr %5, i32 0, i32 1
  store i64 %14, ptr %15, align 8, !tbaa !30
  store ptr null, ptr %2, align 8
  br label %23

16:                                               ; preds = %1
  call void @llvm.lifetime.start.p0(i64 8, ptr %4) #11
  %17 = getelementptr inbounds nuw %"class.base::PickleIterator", ptr %5, i32 0, i32 0
  %18 = load ptr, ptr %17, align 8, !tbaa !27
  %19 = getelementptr inbounds nuw %"class.base::PickleIterator", ptr %5, i32 0, i32 1
  %20 = load i64, ptr %19, align 8, !tbaa !30
  %21 = getelementptr inbounds nuw i8, ptr %18, i64 %20
  store ptr %21, ptr %4, align 8, !tbaa !38
  call void @_ZN4base14PickleIterator7AdvanceEm(ptr noundef nonnull align 8 dereferenceable(24) %5, i64 noundef 4)
  %22 = load ptr, ptr %4, align 8, !tbaa !38
  store ptr %22, ptr %2, align 8
  call void @llvm.lifetime.end.p0(i64 8, ptr %4) #11
  br label %23

23:                                               ; preds = %16, %12
  %24 = load ptr, ptr %2, align 8
  ret ptr %24
}

; Function Attrs: mustprogress uwtable
define noundef ptr @_ZN4base14PickleIterator24GetReadPointerAndAdvanceEi(ptr noundef nonnull align 8 dereferenceable(24) %0, i32 noundef %1) #0 align 2 {
  %3 = alloca ptr, align 8
  %4 = alloca ptr, align 8
  %5 = alloca i32, align 4
  %6 = alloca ptr, align 8
  store ptr %0, ptr %4, align 8, !tbaa !25
  store i32 %1, ptr %5, align 4, !tbaa !16
  %7 = load ptr, ptr %4, align 8
  %8 = load i32, ptr %5, align 4, !tbaa !16
  %9 = icmp slt i32 %8, 0
  br i1 %9, label %19, label %10

10:                                               ; preds = %2
  %11 = getelementptr inbounds nuw %"class.base::PickleIterator", ptr %7, i32 0, i32 2
  %12 = load i64, ptr %11, align 8, !tbaa !31
  %13 = getelementptr inbounds nuw %"class.base::PickleIterator", ptr %7, i32 0, i32 1
  %14 = load i64, ptr %13, align 8, !tbaa !30
  %15 = sub i64 %12, %14
  %16 = load i32, ptr %5, align 4, !tbaa !16
  %17 = sext i32 %16 to i64
  %18 = icmp ult i64 %15, %17
  br i1 %18, label %19, label %23

19:                                               ; preds = %10, %2
  %20 = getelementptr inbounds nuw %"class.base::PickleIterator", ptr %7, i32 0, i32 2
  %21 = load i64, ptr %20, align 8, !tbaa !31
  %22 = getelementptr inbounds nuw %"class.base::PickleIterator", ptr %7, i32 0, i32 1
  store i64 %21, ptr %22, align 8, !tbaa !30
  store ptr null, ptr %3, align 8
  br label %32

23:                                               ; preds = %10
  call void @llvm.lifetime.start.p0(i64 8, ptr %6) #11
  %24 = getelementptr inbounds nuw %"class.base::PickleIterator", ptr %7, i32 0, i32 0
  %25 = load ptr, ptr %24, align 8, !tbaa !27
  %26 = getelementptr inbounds nuw %"class.base::PickleIterator", ptr %7, i32 0, i32 1
  %27 = load i64, ptr %26, align 8, !tbaa !30
  %28 = getelementptr inbounds nuw i8, ptr %25, i64 %27
  store ptr %28, ptr %6, align 8, !tbaa !38
  %29 = load i32, ptr %5, align 4, !tbaa !16
  %30 = sext i32 %29 to i64
  call void @_ZN4base14PickleIterator7AdvanceEm(ptr noundef nonnull align 8 dereferenceable(24) %7, i64 noundef %30)
  %31 = load ptr, ptr %6, align 8, !tbaa !38
  store ptr %31, ptr %3, align 8
  call void @llvm.lifetime.end.p0(i64 8, ptr %6) #11
  br label %32

32:                                               ; preds = %23, %19
  %33 = load ptr, ptr %3, align 8
  ret ptr %33
}

; Function Attrs: inlinehint mustprogress uwtable
define linkonce_odr noundef zeroext i1 @_ZN4base14PickleIterator15ReadBuiltinTypeIiEEbPT_(ptr noundef nonnull align 8 dereferenceable(24) %0, ptr noundef %1) #5 comdat align 2 {
  %3 = alloca i1, align 1
  %4 = alloca ptr, align 8
  %5 = alloca ptr, align 8
  %6 = alloca ptr, align 8
  %7 = alloca i32, align 4
  store ptr %0, ptr %4, align 8, !tbaa !25
  store ptr %1, ptr %5, align 8, !tbaa !45
  %8 = load ptr, ptr %4, align 8
  call void @llvm.lifetime.start.p0(i64 8, ptr %6) #11
  %9 = call noundef ptr @_ZN4base14PickleIterator24GetReadPointerAndAdvanceIiEEPKcv(ptr noundef nonnull align 8 dereferenceable(24) %8)
  store ptr %9, ptr %6, align 8, !tbaa !38
  %10 = load ptr, ptr %6, align 8, !tbaa !38
  %11 = icmp ne ptr %10, null
  br i1 %11, label %13, label %12

12:                                               ; preds = %2
  store i1 false, ptr %3, align 1
  store i32 1, ptr %7, align 4
  br label %17

13:                                               ; preds = %2
  %14 = load ptr, ptr %6, align 8, !tbaa !38
  %15 = load i32, ptr %14, align 4, !tbaa !16
  %16 = load ptr, ptr %5, align 8, !tbaa !45
  store i32 %15, ptr %16, align 4, !tbaa !16
  store i1 true, ptr %3, align 1
  store i32 1, ptr %7, align 4
  br label %17

17:                                               ; preds = %13, %12
  call void @llvm.lifetime.end.p0(i64 8, ptr %6) #11
  %18 = load i1, ptr %3, align 1
  ret i1 %18
}

; Function Attrs: mustprogress nounwind uwtable
define available_externally void @_ZN4base16BasicStringPieceINSt7__cxx1112basic_stringItNS_20string16_char_traitsESaItEEEEC2EPKtm(ptr noundef nonnull align 8 dereferenceable(16) %0, ptr noundef %1, i64 noundef %2) unnamed_addr #2 align 2 {
  %4 = alloca ptr, align 8
  %5 = alloca ptr, align 8
  %6 = alloca i64, align 8
  store ptr %0, ptr %4, align 8, !tbaa !65
  store ptr %1, ptr %5, align 8, !tbaa !49
  store i64 %2, ptr %6, align 8, !tbaa !24
  %7 = load ptr, ptr %4, align 8
  %8 = getelementptr inbounds nuw %"class.base::BasicStringPiece.5", ptr %7, i32 0, i32 0
  %9 = load ptr, ptr %5, align 8, !tbaa !49
  store ptr %9, ptr %8, align 8, !tbaa !68
  %10 = getelementptr inbounds nuw %"class.base::BasicStringPiece.5", ptr %7, i32 0, i32 1
  %11 = load i64, ptr %6, align 8, !tbaa !24
  store i64 %11, ptr %10, align 8, !tbaa !70
  ret void
}

; Function Attrs: inlinehint mustprogress uwtable
define linkonce_odr noundef ptr @_ZN4base14PickleIterator24GetReadPointerAndAdvanceEim(ptr noundef nonnull align 8 dereferenceable(24) %0, i32 noundef %1, i64 noundef %2) #5 comdat align 2 {
  %4 = alloca ptr, align 8
  %5 = alloca ptr, align 8
  %6 = alloca i32, align 4
  %7 = alloca i64, align 8
  %8 = alloca i64, align 8
  %9 = alloca i32, align 4
  %10 = alloca i32, align 4
  store ptr %0, ptr %5, align 8, !tbaa !25
  store i32 %1, ptr %6, align 4, !tbaa !16
  store i64 %2, ptr %7, align 8, !tbaa !24
  %11 = load ptr, ptr %5, align 8
  call void @llvm.lifetime.start.p0(i64 8, ptr %8) #11
  %12 = load i32, ptr %6, align 4, !tbaa !16
  %13 = sext i32 %12 to i64
  %14 = load i64, ptr %7, align 8, !tbaa !24
  %15 = mul i64 %13, %14
  store i64 %15, ptr %8, align 8, !tbaa !24
  call void @llvm.lifetime.start.p0(i64 4, ptr %9) #11
  %16 = load i64, ptr %8, align 8, !tbaa !24
  %17 = trunc i64 %16 to i32
  store i32 %17, ptr %9, align 4, !tbaa !16
  %18 = load i64, ptr %8, align 8, !tbaa !24
  %19 = load i32, ptr %9, align 4, !tbaa !16
  %20 = sext i32 %19 to i64
  %21 = icmp ne i64 %18, %20
  br i1 %21, label %22, label %23

22:                                               ; preds = %3
  store ptr null, ptr %4, align 8
  store i32 1, ptr %10, align 4
  br label %26

23:                                               ; preds = %3
  %24 = load i32, ptr %9, align 4, !tbaa !16
  %25 = call noundef ptr @_ZN4base14PickleIterator24GetReadPointerAndAdvanceEi(ptr noundef nonnull align 8 dereferenceable(24) %11, i32 noundef %24)
  store ptr %25, ptr %4, align 8
  store i32 1, ptr %10, align 4
  br label %26

26:                                               ; preds = %23, %22
  call void @llvm.lifetime.end.p0(i64 4, ptr %9) #11
  call void @llvm.lifetime.end.p0(i64 8, ptr %8) #11
  %27 = load ptr, ptr %4, align 8
  ret ptr %27
}

; Function Attrs: mustprogress uwtable
define noundef zeroext i1 @_ZN4base14PickleIterator7ReadIntEPi(ptr noundef nonnull align 8 dereferenceable(24) %0, ptr noundef %1) #0 align 2 {
  %3 = alloca ptr, align 8
  %4 = alloca ptr, align 8
  store ptr %0, ptr %3, align 8, !tbaa !25
  store ptr %1, ptr %4, align 8, !tbaa !45
  %5 = load ptr, ptr %3, align 8
  %6 = load ptr, ptr %4, align 8, !tbaa !45
  %7 = call noundef zeroext i1 @_ZN4base14PickleIterator15ReadBuiltinTypeIiEEbPT_(ptr noundef nonnull align 8 dereferenceable(24) %5, ptr noundef %6)
  ret i1 %7
}

; Function Attrs: mustprogress uwtable
define noundef zeroext i1 @_ZN4base14PickleIterator17ReadStringPiece16EPNS_16BasicStringPieceINSt7__cxx1112basic_stringItNS_20string16_char_traitsESaItEEEEE(ptr noundef nonnull align 8 dereferenceable(24) %0, ptr noundef %1) #0 align 2 {
  %3 = alloca i1, align 1
  %4 = alloca ptr, align 8
  %5 = alloca ptr, align 8
  %6 = alloca i32, align 4
  %7 = alloca i32, align 4
  %8 = alloca ptr, align 8
  %9 = alloca %"class.base::BasicStringPiece.5", align 8
  store ptr %0, ptr %4, align 8, !tbaa !25
  store ptr %1, ptr %5, align 8, !tbaa !65
  %10 = load ptr, ptr %4, align 8
  call void @llvm.lifetime.start.p0(i64 4, ptr %6) #11
  %11 = call noundef zeroext i1 @_ZN4base14PickleIterator7ReadIntEPi(ptr noundef nonnull align 8 dereferenceable(24) %10, ptr noundef %6)
  br i1 %11, label %13, label %12

12:                                               ; preds = %2
  store i1 false, ptr %3, align 1
  store i32 1, ptr %7, align 4
  br label %25

13:                                               ; preds = %2
  call void @llvm.lifetime.start.p0(i64 8, ptr %8) #11
  %14 = load i32, ptr %6, align 4, !tbaa !16
  %15 = call noundef ptr @_ZN4base14PickleIterator24GetReadPointerAndAdvanceEim(ptr noundef nonnull align 8 dereferenceable(24) %10, i32 noundef %14, i64 noundef 2)
  store ptr %15, ptr %8, align 8, !tbaa !38
  %16 = load ptr, ptr %8, align 8, !tbaa !38
  %17 = icmp ne ptr %16, null
  br i1 %17, label %19, label %18

18:                                               ; preds = %13
  store i1 false, ptr %3, align 1
  store i32 1, ptr %7, align 4
  br label %24

19:                                               ; preds = %13
  call void @llvm.lifetime.start.p0(i64 16, ptr %9) #11
  %20 = load ptr, ptr %8, align 8, !tbaa !38
  %21 = load i32, ptr %6, align 4, !tbaa !16
  %22 = sext i32 %21 to i64
  call void @_ZN4base16BasicStringPieceINSt7__cxx1112basic_stringItNS_20string16_char_traitsESaItEEEEC2EPKtm(ptr noundef nonnull align 8 dereferenceable(16) %9, ptr noundef %20, i64 noundef %22)
  %23 = load ptr, ptr %5, align 8, !tbaa !65
  call void @llvm.memcpy.p0.p0.i64(ptr align 8 %23, ptr align 8 %9, i64 16, i1 false), !tbaa.struct !67
  call void @llvm.lifetime.end.p0(i64 16, ptr %9) #11
  store i1 true, ptr %3, align 1
  store i32 1, ptr %7, align 4
  br label %24

24:                                               ; preds = %19, %18
  call void @llvm.lifetime.end.p0(i64 8, ptr %8) #11
  br label %25

25:                                               ; preds = %24, %12
  call void @llvm.lifetime.end.p0(i64 4, ptr %6) #11
  %26 = load i1, ptr %3, align 1
  ret i1 %26
}